; Function Attrs: mustprogress uwtable
define hidden noundef ptr @_ZN7datalog17lazy_table_rename5forceEv(ptr noundef nonnull align 8 captures(none) dereferenceable(64) %0) unnamed_addr #3 align 2 personality ptr @__gxx_personality_v0 {
  %2 = alloca %"class.datalog::verbose_action", align 8
  %3 = getelementptr inbounds nuw i8, ptr %0, i64 56
  %4 = load ptr, ptr %3, align 8, !tbaa !56
  %5 = getelementptr inbounds nuw i8, ptr %4, i64 40
  %6 = load ptr, ptr %5, align 8, !tbaa !51
  %.not.i = icmp eq ptr %6, null
  br i1 %.not.i, label %7, label %_ZN7datalog14lazy_table_ref4evalEv.exit

7:                                                ; preds = %1
  %8 = load ptr, ptr %4, align 8, !tbaa !27
  %9 = load ptr, ptr %8, align 8
  %10 = tail call noundef ptr %9(ptr noundef nonnull align 8 dereferenceable(48) %4)
  %11 = load ptr, ptr %5, align 8, !tbaa !51
  %.not.i.i = icmp eq ptr %11, null
  %.not3.i.i = icmp eq ptr %10, %11
  %or.cond.i.i = or i1 %.not.i.i, %.not3.i.i
  br i1 %or.cond.i.i, label %_ZN7datalog10scoped_relINS_10table_baseEEaSEPS1_.exit.i, label %12

12:                                               ; preds = %7
  tail call void @_ZN7datalog16universal_deleteEPNS_10table_baseE(ptr noundef nonnull %11)
  br label %_ZN7datalog10scoped_relINS_10table_baseEEaSEPS1_.exit.i

_ZN7datalog10scoped_relINS_10table_baseEEaSEPS1_.exit.i: ; preds = %12, %7
  store ptr %10, ptr %5, align 8, !tbaa !51
  br label %_ZN7datalog14lazy_table_ref4evalEv.exit

_ZN7datalog14lazy_table_ref4evalEv.exit:          ; preds = %1, %_ZN7datalog10scoped_relINS_10table_baseEEaSEPS1_.exit.i
  %13 = phi ptr [ %10, %_ZN7datalog10scoped_relINS_10table_baseEEaSEPS1_.exit.i ], [ %6, %1 ]
  call void @llvm.lifetime.start.p0(i64 16, ptr nonnull %2) #22
  call void @_ZN7datalog14verbose_actionC1EPKcj(ptr noundef nonnull align 8 dereferenceable(16) %2, ptr noundef nonnull @.str.8, i32 noundef 11)
  %14 = getelementptr inbounds nuw i8, ptr %0, i64 8
  %15 = load ptr, ptr %14, align 8, !tbaa !81
  %16 = getelementptr inbounds nuw i8, ptr %15, i64 24
  %17 = load ptr, ptr %16, align 8, !tbaa !65
  %18 = getelementptr inbounds nuw i8, ptr %0, i64 48
  %19 = load ptr, ptr %18, align 8, !tbaa !60
  %20 = icmp eq ptr %19, null
  br i1 %20, label %_ZNK6vectorIjLb0EjE4sizeEv.exit, label %21

21:                                               ; preds = %_ZN7datalog14lazy_table_ref4evalEv.exit
  %22 = getelementptr inbounds i8, ptr %19, i64 -4
  %23 = load i32, ptr %22, align 4, !tbaa !42
  br label %_ZNK6vectorIjLb0EjE4sizeEv.exit

_ZNK6vectorIjLb0EjE4sizeEv.exit:                  ; preds = %_ZN7datalog14lazy_table_ref4evalEv.exit, %21
  %.0.i = phi i32 [ %23, %21 ], [ 0, %_ZN7datalog14lazy_table_ref4evalEv.exit ]
  %24 = invoke noundef ptr @_ZN7datalog16relation_manager12mk_rename_fnERKNS_10table_baseEjPKj(ptr noundef nonnull align 8 dereferenceable(200) %17, ptr noundef nonnull align 8 dereferenceable(36) %13, i32 noundef %.0.i, ptr noundef %19)
          to label %25 unwind label %38

25:                                               ; preds = %_ZNK6vectorIjLb0EjE4sizeEv.exit
  %26 = load ptr, ptr %24, align 8, !tbaa !27
  %27 = getelementptr inbounds nuw i8, ptr %26, i64 16
  %28 = load ptr, ptr %27, align 8
  %29 = invoke noundef ptr %28(ptr noundef nonnull align 8 dereferenceable(8) %24, ptr noundef nonnull align 8 dereferenceable(36) %13)
          to label %30 unwind label %38

30:                                               ; preds = %25
  %31 = getelementptr inbounds nuw i8, ptr %0, i64 40
  %32 = load ptr, ptr %31, align 8, !tbaa !51
  %.not.i6 = icmp eq ptr %32, null
  %.not3.i = icmp eq ptr %29, %32
  %or.cond.i = or i1 %.not.i6, %.not3.i
  br i1 %or.cond.i, label %34, label %33

33:                                               ; preds = %30
  invoke void @_ZN7datalog16universal_deleteEPNS_10table_baseE(ptr noundef nonnull %32)
          to label %34 unwind label %38

34:                                               ; preds = %33, %30
  store ptr %29, ptr %31, align 8, !tbaa !51
  %35 = load ptr, ptr %24, align 8, !tbaa !27
  %36 = load ptr, ptr %35, align 8
  call void %36(ptr noundef nonnull align 8 dereferenceable(8) %24) #22
  invoke void @_ZN6memory10deallocateEPv(ptr noundef nonnull %24)
          to label %_Z7deallocIN7datalog17tr_infrastructureINS0_12table_traitsEE14transformer_fnEEvPT_.exit unwind label %38

_Z7deallocIN7datalog17tr_infrastructureINS0_12table_traitsEE14transformer_fnEEvPT_.exit: ; preds = %34
  %37 = load ptr, ptr %31, align 8, !tbaa !51
  call void @_ZN7datalog14verbose_actionD1Ev(ptr noundef nonnull align 8 dereferenceable(16) %2) #22
  call void @llvm.lifetime.end.p0(i64 16, ptr nonnull %2) #22
  ret ptr %37

38:                                               ; preds = %34, %33, %25, %_ZNK6vectorIjLb0EjE4sizeEv.exit
  %39 = landingpad { ptr, i32 }
          cleanup
  call void @_ZN7datalog14verbose_actionD1Ev(ptr noundef nonnull align 8 dereferenceable(16) %2) #22
  call void @llvm.lifetime.end.p0(i64 16, ptr nonnull %2) #22
  resume { ptr, i32 } %39
}